                                ;*** AILZ80ASM *** Z-80 Assembler, version 1.0.0.0, LST:Full:4
                                
                                ;   VIEW    by Gaku
                                
       0050                     WIDTH   EQU 80
       0018                     LINE    EQU 24
       0005                     SYSTEM  EQU 0005H
       005C                     FCB1    EQU 005CH
       0080                     DTA EQU 0080H
       EF96                     _COLORF EQU 0EF96H
                                
000000 0100                         ORG 0100H
000000 0100 C34601          10      JP  START
       0103                     TITLE:
000003 0103 766965772076312E        DB  "view v1.02",0DH,0AH
            30320D0A            
00000F 010F 75736167653A            DB  "usage:"
000015 0115 2056494557206669        DB  " VIEW filename",0DH,0AH
            6C656E616D650D0A    
000025 0125 24                      DB  "$"
       0126                     EMES1:
000026 0126 46696C65206E6F74        DB  "File not found.$"
            20666F756E642E24    
       0136                     EMES2:
000036 0136 5265616420657272        DB  "Read error.$"
            6F722E24            
       0142                     EMES:
000042 0142 070D0A24                DB  7,0DH,0AH,"$"
                                
       0146                     START:
000046 0146 3A0B00          13      LD  A,(000BH)
000049 0149 320802          13      LD  (SMC01+2),A
00004C 014C 320E02          13      LD  (SMC02+2),A
00004F 014F 324202          13      LD  (SMC03+2),A
                                ;               Read File
000052 0152 3A5D00          13      LD  A,(FCB1+1)
000055 0155 FE21             7      CP  21H
000057 0157 DA2604          10      JP  C,USAGE
                                
00005A 015A 118000          10      LD  DE,DTA
00005D 015D 0E1A             7      LD  C,1AH
00005F 015F CD0500          17      CALL    SYSTEM
                                
000062 0162 115C00          10      LD  DE,FCB1
000065 0165 0E11             7      LD  C,11H
000067 0167 CD0500          17      CALL    SYSTEM
00006A 016A B7               4      OR  A
00006B 016B C23104          10      JP  NZ,ERROR1
       016E                     FILES:
00006E 016E 118000          10      LD  DE,DTA
000071 0171 0E0F             7      LD  C,0FH
000073 0173 CD0500          17      CALL    SYSTEM
000076 0176 B7               4      OR  A
000077 0177 C23104          10      JP  NZ,ERROR1
                                
00007A 017A 210000          10      LD  HL,0
00007D 017D 22A100          16      LD  (DTA+33),HL
000080 0180 22A300          16      LD  (DTA+35),HL
000083 0183 2C               4      INC L
000084 0184 228E00          16      LD  (DTA+14),HL
                                
000087 0187 11E808          10      LD  DE,DATA2
00008A 018A 0E1A             7      LD  C,1AH
00008C 018C CD0500          17      CALL    SYSTEM
                                
00008F 018F 2A0600          16      LD  HL,(SYSTEM+1)
000092 0192 11E808          10      LD  DE,DATA2
000095 0195 ED52            15      SBC HL,DE
000097 0197 118000          10      LD  DE,DTA
00009A 019A 0E27             7      LD  C,27H
00009C 019C CD0500          17      CALL    SYSTEM
00009F 019F C6FE             7      ADD A,0FEH
0000A1 01A1 DA3604          10      JP  C,ERROR2
                                ;               Change Data
0000A4 01A4 EB               4      EX  DE,HL       ;DE=SIZE
0000A5 01A5 13               6      INC DE
0000A6 01A6 21E804          10      LD  HL,DATA
0000A9 01A9 FD21E808        14      LD  IY,DATA2
0000AD 01AD AF               4      XOR A
0000AE 01AE CDFE02          17      CALL    WRITE
       01B1                     CHG1:
0000B1 01B1 0650             7      LD  B,WIDTH
       01B3                     CHG2:
0000B3 01B3 1B               6      DEC DE
0000B4 01B4 7A               4      LD  A,D
0000B5 01B5 B3               4      OR  E
0000B6 01B6 284C            12      JR  Z,CHGE
                                
0000B8 01B8 FD7E00          19      LD  A,(IY+0)
0000BB 01BB FD23            10      INC IY
0000BD 01BD FE0A             7      CP  0AH
0000BF 01BF 28F2            12      JR  Z,CHG2
0000C1 01C1 FE0D             7      CP  0DH
0000C3 01C3 2838            12      JR  Z,CHG4
                                
0000C5 01C5 FE80             7      CP  80H
0000C7 01C7 381E            12      JR  C,CHGA
0000C9 01C9 FEA0             7      CP  0A0H
0000CB 01CB 3804            12      JR  C,CHGK
0000CD 01CD FEE0             7      CP  0E0H
0000CF 01CF 3816            12      JR  C,CHGA
       01D1                     CHGK:
0000D1 01D1 13               6      INC DE
0000D2 01D2 FD2B            10      DEC IY
0000D4 01D4 05               4      DEC B
0000D5 01D5 2826            12      JR  Z,CHG4
0000D7 01D7 FD23            10      INC IY
                                
0000D9 01D9 CDFE02          17      CALL    WRITE
                                
0000DC 01DC 1B               6      DEC DE
0000DD 01DD 1B               6      DEC DE
0000DE 01DE 7A               4      LD  A,D
0000DF 01DF B3               4      OR  E
0000E0 01E0 2822            12      JR  Z,CHGE
0000E2 01E2 FD7E00          19      LD  A,(IY+0)
0000E5 01E5 FD23            10      INC IY
       01E7                     CHGA:
0000E7 01E7 CDFE02          17      CALL    WRITE
0000EA 01EA FE09             7      CP  9
0000EC 01EC 2006            12      JR  NZ,CHG3
                                
0000EE 01EE 78               4      LD  A,B
0000EF 01EF 3D               4      DEC A
0000F0 01F0 E6F8             7      AND 0F8H
0000F2 01F2 3C               4      INC A
0000F3 01F3 47               4      LD  B,A
       01F4                     CHG3:
0000F4 01F4 10BD            13      DJNZ    CHG2
                                
0000F6 01F6 FD7E00          19      LD  A,(IY+0)
0000F9 01F9 FE0D             7      CP  0DH
0000FB 01FB 28B6            12      JR  Z,CHG2
       01FD                     CHG4:
0000FD 01FD 3E0D             7      LD  A,0DH
0000FF 01FF CDFE02          17      CALL    WRITE
000102 0202 18AD            12      JR  CHG1
       0204                     CHGE:
000104 0204 3600            10      LD  (HL),0
                                
000106 0206 3A96EF          13  SMC01:  LD  A,(_COLORF)
000109 0209 F5              11      PUSH    AF
00010A 020A 3E0E             7      LD  A,0EH
00010C 020C 3296EF          13  SMC02:  LD  (_COLORF),A
                                
00010F 020F 1E0B             7      LD  E,11
000111 0211 0E06             7      LD  C,6
000113 0213 CD0500          17      CALL    SYSTEM
000116 0216 1E20             7      LD  E,20H
000118 0218 CD0500          17      CALL    SYSTEM
                                
00011B 021B 218100          10      LD  HL,DTA+1
00011E 021E 010608          10      LD  BC,8*256+6
       0221                     NAME:
000121 0221 5E               7      LD  E,(HL)
000122 0222 23               6      INC HL
000123 0223 C5              11      PUSH    BC
000124 0224 CD0500          17      CALL    SYSTEM
000127 0227 C1              10      POP BC
000128 0228 10F7            13      DJNZ    NAME
                                
00012A 022A 1E2E             7      LD  E,"."
00012C 022C CD0500          17      CALL    SYSTEM
                                
00012F 022F 0603             7      LD  B,3
       0231                     EXT:
000131 0231 5E               7      LD  E,(HL)
000132 0232 23               6      INC HL
000133 0233 C5              11      PUSH    BC
000134 0234 CD0500          17      CALL    SYSTEM
000137 0237 C1              10      POP BC
000138 0238 10F7            13      DJNZ    EXT
                                
00013A 023A 1E05             7      LD  E,5
00013C 023C CD0500          17      CALL    SYSTEM
                                
00013F 023F F1              10      POP AF
000140 0240 3296EF          13  SMC03:  LD  (_COLORF),A
                                
       0243                     KBUF:
000143 0243 1EFF             7      LD  E,0FFH
000145 0245 CD0500          17      CALL    SYSTEM
000148 0248 B7               4      OR  A
000149 0249 20F8            12      JR  NZ,KBUF
                                
00014B 024B 21E904          10      LD  HL,DATA+1
       024E                     MAIN:
00014E 024E CD2803          17      CALL    PAGE
       0251                     MAIN1:
000151 0251 1EFF             7      LD  E,0FFH
000153 0253 0E06             7      LD  C,6
000155 0255 CD0500          17      CALL    SYSTEM
000158 0258 FE03             7      CP  3
00015A 025A CA5404          10      JP  Z,QUIT
00015D 025D FE1B             7      CP  1BH
00015F 025F CA4904          10      JP  Z,ESC
                                
000162 0262 FE1F             7      CP  1FH
000164 0264 2812            12      JR  Z,DOWN
000166 0266 FE1E             7      CP  1EH
000168 0268 282E            12      JR  Z,UP
00016A 026A FE1D             7      CP  1DH
00016C 026C 286F            12      JR  Z,PGUP
00016E 026E FE1C             7      CP  1CH
000170 0270 284B            12      JR  Z,PGDW
000172 0272 FE20             7      CP  20H
000174 0274 2874            12      JR  Z,NFILES
000176 0276 18D9            12      JR  MAIN1
                                
       0278                     DOWN:
000178 0278 2AE604          16      LD  HL,(TEXT2)
00017B 027B 7E               7      LD  A,(HL)
00017C 027C B7               4      OR  A
00017D 027D 28D2            12      JR  Z,MAIN1
                                
00017F 027F E5              11      PUSH    HL
000180 0280 CDB403          17      CALL    SCRUP
000183 0283 E1              10      POP HL
000184 0284 018037          10      LD  BC,3000H+WIDTH*LINE
000187 0287 CD3A03          17      CALL    PRINT
00018A 028A 22E604          16      LD  (TEXT2),HL
                                
00018D 028D 2AE404          16      LD  HL,(TEXT)
000190 0290 CD1203          17      CALL    NEXT
000193 0293 22E404          16      LD  (TEXT),HL
000196 0296 18B9            12      JR  MAIN1
       0298                     UP:
000198 0298 2AE404          16      LD  HL,(TEXT)
00019B 029B 2B               6      DEC HL
00019C 029C 7E               7      LD  A,(HL)
00019D 029D B7               4      OR  A
00019E 029E 28B1            12      JR  Z,MAIN1
                                
0001A0 02A0 CDCD03          17      CALL    SCRDW
0001A3 02A3 2AE404          16      LD  HL,(TEXT)
0001A6 02A6 CD1B03          17      CALL    BACK
0001A9 02A9 22E404          16      LD  (TEXT),HL
0001AC 02AC 015030          10      LD  BC,3000H+WIDTH
0001AF 02AF CD3A03          17      CALL    PRINT
                                
0001B2 02B2 2AE604          16      LD  HL,(TEXT2)
0001B5 02B5 CD1B03          17      CALL    BACK
0001B8 02B8 22E604          16      LD  (TEXT2),HL
0001BB 02BB 1894            12      JR  MAIN1
       02BD                     PGDW:
0001BD 02BD 0617             7      LD  B,LINE-1
       02BF                     PGDW1:
0001BF 02BF 2AE604          16      LD  HL,(TEXT2)
0001C2 02C2 7E               7      LD  A,(HL)
0001C3 02C3 B7               4      OR  A
0001C4 02C4 2811            12      JR  Z,PGDW2
                                
0001C6 02C6 CD1203          17      CALL    NEXT
0001C9 02C9 22E604          16      LD  (TEXT2),HL
                                
0001CC 02CC 2AE404          16      LD  HL,(TEXT)
0001CF 02CF CD1203          17      CALL    NEXT
0001D2 02D2 22E404          16      LD  (TEXT),HL
0001D5 02D5 10E8            13      DJNZ    PGDW1
       02D7                     PGDW2:
0001D7 02D7 2AE404          16      LD  HL,(TEXT)
0001DA 02DA C34E02          10      JP  MAIN
                                
       02DD                     PGUP:
0001DD 02DD 2AE404          16      LD  HL,(TEXT)
0001E0 02E0 0617             7      LD  B,LINE-1
       02E2                     PGUP1:
0001E2 02E2 CD1B03          17      CALL    BACK
0001E5 02E5 10FB            13      DJNZ    PGUP1
0001E7 02E7 C34E02          10      JP  MAIN
                                
       02EA                     NFILES:
0001EA 02EA 118000          10      LD  DE,DTA
0001ED 02ED 0E1A             7      LD  C,1AH
0001EF 02EF CD0500          17      CALL    SYSTEM
                                
0001F2 02F2 0E12             7      LD  C,12H
0001F4 02F4 CD0500          17      CALL    SYSTEM
0001F7 02F7 B7               4      OR  A
0001F8 02F8 C25404          10      JP  NZ,QUIT
0001FB 02FB C36E01          10      JP  FILES
                                
       02FE                     WRITE:
0001FE 02FE D5              11      PUSH    DE
0001FF 02FF ED5B0600        20      LD  DE,(SYSTEM+1)
000203 0303 15               4      DEC D
000204 0304 A7               4      AND A
000205 0305 ED52            15      SBC HL,DE
000207 0307 19              11      ADD HL,DE
000208 0308 D1              10      POP DE
000209 0309 3003            12      JR  NC,WRITE1
00020B 030B 77               7      LD  (HL),A
00020C 030C 23               6      INC HL
00020D 030D C9              10      RET
       030E                     WRITE1:
00020E 030E F1              10      POP AF
00020F 030F C30402          10      JP  CHGE
                                
       0312                     NEXT:
000212 0312 7E               7      LD  A,(HL)
000213 0313 B7               4      OR  A
000214 0314 C8              11      RET Z
000215 0315 23               6      INC HL
000216 0316 FE0D             7      CP  0DH
000218 0318 20F8            12      JR  NZ,NEXT
00021A 031A C9              10      RET
                                
       031B                     BACK:
00021B 031B 2B               6      DEC HL
00021C 031C 7E               7      LD  A,(HL)
       031D                     BACK1:
00021D 031D B7               4      OR  A
00021E 031E 2806            12      JR  Z,BACKE
000220 0320 2B               6      DEC HL
000221 0321 7E               7      LD  A,(HL)
000222 0322 FE0D             7      CP  0DH
000224 0324 20F7            12      JR  NZ,BACK1
       0326                     BACKE:
000226 0326 23               6      INC HL
000227 0327 C9              10      RET
                                
       0328                     PAGE:
000228 0328 22E404          16      LD  (TEXT),HL
00022B 032B 015030          10      LD  BC,3000H+WIDTH
00022E 032E 1618             7      LD  D,LINE
       0330                     PAGE1:
000230 0330 CD3A03          17      CALL    PRINT
000233 0333 15               4      DEC D
000234 0334 20FA            12      JR  NZ,PAGE1
000236 0336 22E604          16      LD  (TEXT2),HL
000239 0339 C9              10      RET
                                
       033A                     PRINT:
00023A 033A 1E50             7      LD  E,WIDTH
       033C                     PRINT1:
00023C 033C 7E               7      LD  A,(HL)
00023D 033D B7               4      OR  A
00023E 033E 284B            12      JR  Z,PRINTE2
000240 0340 23               6      INC HL
000241 0341 FE0D             7      CP  0DH
000243 0343 2846            12      JR  Z,PRINTE2
                                
000245 0345 FE80             7      CP  80H
000247 0347 3829            12      JR  C,ANK
000249 0349 FEA0             7  KANFLG: CP  0A0H
00024B 034B 3804            12      JR  C,KANJI
00024D 034D FEE0             7      CP  0E0H
00024F 034F 3821            12      JR  C,ANK
       0351                     KANJI:
000251 0351 D5              11      PUSH    DE
000252 0352 C5              11      PUSH    BC
000253 0353 57               4      LD  D,A
000254 0354 5E               7      LD  E,(HL)
000255 0355 23               6      INC HL
000256 0356 CD7E04          17      CALL    SFTJIS
000259 0359 CD9604          17      CALL    JISVRM
00025C 035C C1              10      POP BC
00025D 035D ED59            12      OUT (C),E
00025F 035F 03               6      INC BC
000260 0360 ED59            12      OUT (C),E
000262 0362 0B               6      DEC BC
000263 0363 CBD8             8      SET 3,B
000265 0365 ED51            12      OUT (C),D
000267 0367 03               6      INC BC
000268 0368 CBF2             8      SET 6,D
00026A 036A ED51            12      OUT (C),D
00026C 036C CB98             8      RES 3,B
00026E 036E D1              10      POP DE
00026F 036F 1D               4      DEC E
000270 0370 180C            12      JR  PRINTL
       0372                     ANK:
000272 0372 FE09             7      CP  9
000274 0374 2825            12      JR  Z,TAB
000276 0376 ED79            12      OUT (C),A
000278 0378 CBD8             8      SET 3,B
00027A 037A ED71                    DB  0EDH,71H
00027C 037C CB98             8      RES 3,B
       037E                     PRINTL:
00027E 037E 03               6      INC BC
       037F                     PRINTL1:
00027F 037F 1D               4      DEC E
000280 0380 20BA            12      JR  NZ,PRINT1
       0382                     PRINTE:
000282 0382 7E               7      LD  A,(HL)
000283 0383 B7               4      OR  A
000284 0384 2805            12      JR  Z,PRINTE2
000286 0386 23               6      INC HL
000287 0387 FE0D             7      CP  0DH
000289 0389 20F7            12      JR  NZ,PRINTE
       038B                     PRINTE2:
00028B 038B 3E20             7      LD  A,20H
00028D 038D 1C               4      INC E
       038E                     PRINTE3:
00028E 038E 1D               4      DEC E
00028F 038F C8              11      RET Z
000290 0390 ED79            12      OUT (C),A
000292 0392 CBD8             8      SET 3,B
000294 0394 ED71                    DB  0EDH,71H
000296 0396 CB98             8      RES 3,B
000298 0398 03               6      INC BC
000299 0399 18F3            12      JR  PRINTE3
       039B                     TAB:
00029B 039B 7B               4      LD  A,E
00029C 039C 3D               4      DEC A
00029D 039D E6F8             7      AND 0F8H
00029F 039F 93               4      SUB E
       03A0                     TAB1:
0002A0 03A0 F5              11      PUSH    AF
0002A1 03A1 3E20             7      LD  A,20H
0002A3 03A3 ED79            12      OUT (C),A
0002A5 03A5 CBD8             8      SET 3,B
0002A7 03A7 ED71                    DB  0EDH,71H
0002A9 03A9 CB98             8      RES 3,B
0002AB 03AB 03               6      INC BC
0002AC 03AC F1              10      POP AF
0002AD 03AD 1D               4      DEC E
0002AE 03AE 3C               4      INC A
0002AF 03AF 20EF            12      JR  NZ,TAB1
0002B1 03B1 1C               4      INC E
0002B2 03B2 18CB            12      JR  PRINTL1
                                
       03B4                     SCRUP:
0002B4 03B4 215030          10      LD  HL,3000H+WIDTH
0002B7 03B7 CDE603          17      CALL    SCR1
                                
       03BA                     SCRUP1:
0002BA 03BA B7               4      OR  A
0002BB 03BB C8              11      RET Z
0002BC 03BC F5              11      PUSH    AF
0002BD 03BD CD0A04          17      CALL    UPSUB       ;テキスト
0002C0 03C0 11B007          10      LD  DE,800H-WIDTH
0002C3 03C3 19              11      ADD HL,DE
0002C4 03C4 CD0A04          17      CALL    UPSUB       ;漢字
0002C7 03C7 CB9C             8      RES 3,H
0002C9 03C9 F1              10      POP AF
0002CA 03CA 3D               4      DEC A
0002CB 03CB 18ED            12      JR  SCRUP1
                                
       03CD                     SCRDW:
0002CD 03CD 218037          10      LD  HL,3000H+WIDTH*LINE
0002D0 03D0 CDE603          17      CALL    SCR1
       03D3                     SCRDW1:
0002D3 03D3 B7               4      OR  A
0002D4 03D4 C8              11      RET Z
0002D5 03D5 F5              11      PUSH    AF
0002D6 03D6 CD0504          17      CALL    DWSUB       ;テキスト
0002D9 03D9 115008          10      LD  DE,800H+WIDTH
0002DC 03DC 19              11      ADD HL,DE
0002DD 03DD CD0504          17      CALL    DWSUB       ;漢字
0002E0 03E0 CB9C             8      RES 3,H
0002E2 03E2 F1              10      POP AF
0002E3 03E3 3D               4      DEC A
0002E4 03E4 18ED            12      JR  SCRDW1
       03E6                     SCR1:
0002E6 03E6 3E17             7      LD  A,LINE-1
0002E8 03E8 01801F          10      LD  BC,1F80H    ;DMA
0002EB 03EB 1EC3             7      LD  E,0C3H
0002ED 03ED ED59            12      OUT (C),E
0002EF 03EF 119A65          10      LD  DE,659AH
0002F2 03F2 ED59            12      OUT (C),E
0002F4 03F4 ED51            12      OUT (C),D
0002F6 03F6 114F00          10      LD  DE,79
0002F9 03F9 ED59            12      OUT (C),E
0002FB 03FB ED51            12      OUT (C),D
                                
0002FD 03FD 11181C          10      LD  DE,1C18H
000300 0400 ED51            12      OUT (C),D
000302 0402 ED59            12      OUT (C),E
000304 0404 C9              10      RET
       0405                     DWSUB:
000305 0405 11B0FF          10      LD  DE,-WIDTH
000308 0408 1803            12      JR  DWSUB1
       040A                     UPSUB:
00030A 040A 115000          10      LD  DE,WIDTH
       040D                     DWSUB1:
00030D 040D 3ECD             7      LD  A,0CDH
00030F 040F ED79            12      OUT (C),A
000311 0411 ED69            12      OUT (C),L       ;SOURCE
000313 0413 ED61            12      OUT (C),H
000315 0415 19              11      ADD HL,DE
000316 0416 3E1D             7      LD  A,1DH
000318 0418 ED79            12      OUT (C),A       ;DIST
00031A 041A ED69            12      OUT (C),L
00031C 041C ED61            12      OUT (C),H
00031E 041E 1187CF          10      LD  DE,0CF87H
000321 0421 ED51            12      OUT (C),D
000323 0423 ED59            12      OUT (C),E
000325 0425 C9              10      RET
                                
       0426                     USAGE:
000326 0426 110301          10      LD  DE,TITLE
000329 0429 0E09             7      LD  C,9
00032B 042B CD0500          17      CALL    SYSTEM
00032E 042E C30000          10      JP  0
                                
       0431                     ERROR1:
000331 0431 112601          10      LD  DE,EMES1
000334 0434 1803            12      JR  ERROR
       0436                     ERROR2:
000336 0436 113601          10      LD  DE,EMES2
       0439                     ERROR:
000339 0439 0E09             7      LD  C,9
00033B 043B CD0500          17      CALL    SYSTEM
                                
00033E 043E 114201          10      LD  DE,EMES
000341 0441 0E09             7      LD  C,9
000343 0443 CD0500          17      CALL    SYSTEM
000346 0446 C30000          10      JP  0
                                
       0449                     ESC:
000349 0449 1EFF             7      LD  E,0FFH
00034B 044B 0E06             7      LD  C,6
00034D 044D CD0500          17      CALL    SYSTEM
000350 0450 B7               4      OR  A
000351 0451 C25102          10      JP  NZ,MAIN1
                                
       0454                     QUIT:
000354 0454 1EFF             7      LD  E,0FFH
000356 0456 0E06             7      LD  C,6
000358 0458 CD0500          17      CALL    SYSTEM
00035B 045B B7               4      OR  A
00035C 045C 20F6            12      JR  NZ,QUIT
                                
00035E 045E 1E0C             7      LD  E,0CH
000360 0460 0E06             7      LD  C,6
000362 0462 CD0500          17      CALL    SYSTEM
000365 0465 018037          10      LD  BC,03000H+WIDTH*24
000368 0468 3E20             7      LD  A,020H
       046A                     QUIT1:
00036A 046A ED79            12      OUT (C),A
00036C 046C 03               6      INC BC
00036D 046D CB58             8      BIT 3,B
00036F 046F 28F9            12      JR  Z,QUIT1
000371 0471 01803F          10      LD  BC,03800H+WIDTH*24
       0474                     QUIT2:
000374 0474 ED71            12      OUT (C),0
000376 0476 03               6      INC BC
000377 0477 CB58             8      BIT 3,B
000379 0479 20F9            12      JR  NZ,QUIT2
00037B 047B C30000          10      JP  0
                                
       047E                     SFTJIS:
00037E 047E CB22             8      SLA D
000380 0480 7B               4      LD  A,E
000381 0481 FE80             7      CP  $80
000383 0483 CE61             7      ADC A,$61
000385 0485 5F               4      LD  E,A
000386 0486 7A               4      LD  A,D
000387 0487 CE1F             7      ADC A,$1F
000389 0489 57               4      LD  D,A
00038A 048A 7B               4      LD  A,E
00038B 048B C67F             7      ADD A,$7F
00038D 048D 5F               4      LD  E,A
00038E 048E 3802            12      JR  C,SFTJIS1
000390 0490 C6A2             7      ADD A,$A2
       0492                     SFTJIS1:
000392 0492 5F               4      LD  E,A
000393 0493 CBBA             8      RES 7,D
000395 0495 C9              10      RET
                                
                                ;in
                                ;DE:    JISコード
                                ;out
                                ;D: RH
                                ;E: RL
       0496                     JISVRM:
000396 0496 7A               4      LD  A,D
000397 0497 0F               4      RRCA
000398 0498 0F               4      RRCA
000399 0499 0F               4      RRCA
00039A 049A 0F               4      RRCA
00039B 049B E607             7      AND 7   ;JH6,JH5,JH4
00039D 049D FE02             7      CP  2
00039F 049F 282F            12      JR  Z,JR2
0003A1 04A1 3828            12      JR  C,JR0
0003A3 04A3 FE07             7      CP  7
0003A5 04A5 2825            12      JR  Z,JR7
                                            ;3-6
0003A7 04A7 D603             7      SUB 3
0003A9 04A9 47               4      LD  B,A
0003AA 04AA 87               4      ADD A,A ;*2
0003AB 04AB 80               4      ADD A,B ;*3
0003AC 04AC 3C               4      INC A
0003AD 04AD 47               4      LD  B,A
0003AE 04AE 7B               4      LD  A,E
0003AF 04AF 07               4      RLCA
0003B0 04B0 07               4      RLCA
0003B1 04B1 07               4      RLCA
0003B2 04B2 E603             7      AND 3   ;JL6,JL5
0003B4 04B4 80               4      ADD A,B
0003B5 04B5 87               4      ADD A,A ;*2
       04B6                     JRE:
0003B6 04B6 CB5A             8      BIT 3,D ;JH3
0003B8 04B8 2801            12      JR  Z,JR3_1
0003BA 04BA 3C               4      INC A
       04BB                     JR3_1:
0003BB 04BB 42               4      LD  B,D
0003BC 04BC F680             7      OR  $80 ;RH7
0003BE 04BE 57               4      LD  D,A
0003BF 04BF 7B               4      LD  A,E
0003C0 04C0 E61F             7      AND $1F
0003C2 04C2 5F               4      LD  E,A
0003C3 04C3 78               4      LD  A,B
0003C4 04C4 0F               4      RRCA
0003C5 04C5 0F               4      RRCA
0003C6 04C6 0F               4      RRCA
0003C7 04C7 E6E0             7      AND $E0
0003C9 04C9 B3               4      OR  E
0003CA 04CA 5F               4      LD  E,A
       04CB                     JR0:
0003CB 04CB C9              10      RET
       04CC                     JR7:
0003CC 04CC 061C             7      LD  B,$1C
0003CE 04CE 1802            12      JR  JR2_1
       04D0                     JR2:
0003D0 04D0 0600             7      LD  B,0
       04D2                     JR2_1:
0003D2 04D2 7B               4      LD  A,E
0003D3 04D3 E660             7      AND $60     ;JL6,JL5
0003D5 04D5 FE40             7      CP  2*$20
0003D7 04D7 2002            12      JR  NZ,JR2_2
0003D9 04D9 CBC8             8      SET 1,B
       04DB                     JR2_2:
0003DB 04DB FE60             7      CP  3*$20
0003DD 04DD 78               4      LD  A,B
0003DE 04DE 2002            12      JR  NZ,JR2_3
0003E0 04E0 EE01             7      XOR 1
       04E2                     JR2_3:
0003E2 04E2 18D2            12      JR  JRE
                                
0003E4 04E4 E804                TEXT:   DW  DATA
0003E6 04E6 E804                TEXT2:  DW  DATA
                                
       04E8                     DATA:
       08E8                     DATA2   EQU DATA+1024
                                
[EOF:VIEW.ASM:SHIFT_JIS]
